; Function Attrs: mustprogress uwtable
define void @_ZN16DecodeAsDelegate17decodeAddProtocolEPKcS1_PvS2_(ptr nocapture readnone %0, ptr noundef %1, ptr noundef %2, ptr noundef %3) #0 align 2 personality ptr @__gxx_personality_v0 {
  %5 = alloca ptr, align 8
  %6 = alloca %class.QString, align 16
  %.not = icmp eq ptr %3, null
  br i1 %.not, label %16, label %7

7:                                                ; preds = %4
  %8 = tail call noalias noundef nonnull dereferenceable(32) ptr @_Znwm(i64 noundef 32) #18
  tail call void @llvm.memset.p0.i64(ptr noundef nonnull align 8 dereferenceable(32) %8, i8 0, i64 32, i1 false)
  call void @llvm.lifetime.start.p0(i64 24, ptr nonnull %6)
  %.not.i.i = icmp eq ptr %1, null
  br i1 %.not.i.i, label %_ZN7QStringaSEPKc.exit, label %.split.i.i

.split.i.i:                                       ; preds = %7
  %9 = tail call noundef i64 @strlen(ptr noundef nonnull dereferenceable(1) %1) #17
  br label %_ZN7QStringaSEPKc.exit

_ZN7QStringaSEPKc.exit:                           ; preds = %.split.i.i, %7
  %.sink5.i.i = phi i64 [ %9, %.split.i.i ], [ 0, %7 ]
  call void @_ZN7QString8fromUtf8E14QByteArrayView(ptr dead_on_unwind nonnull writable sret(%class.QString) align 8 %6, i64 %.sink5.i.i, ptr %1)
  %10 = getelementptr inbounds i8, ptr %6, i64 8
  %11 = load <2 x ptr>, ptr %6, align 16
  store ptr null, ptr %6, align 16
  store <2 x ptr> %11, ptr %8, align 8
  store ptr null, ptr %10, align 8
  %12 = getelementptr inbounds i8, ptr %8, i64 16
  %13 = getelementptr inbounds i8, ptr %6, i64 16
  %14 = load i64, ptr %13, align 16
  store i64 %14, ptr %12, align 8
  %.phi.trans.insert = getelementptr inbounds i8, ptr %3, i64 16
  %.pre = load i64, ptr %.phi.trans.insert, align 8
  call void @llvm.lifetime.end.p0(i64 24, ptr nonnull %6)
  %15 = getelementptr inbounds i8, ptr %8, i64 24
  store ptr %2, ptr %15, align 8
  call void @llvm.lifetime.start.p0(i64 8, ptr nonnull %5)
  store ptr %8, ptr %5, align 8
  call void @_ZN9QtPrivate12QPodArrayOpsIP17_dissector_info_tE7emplaceIJRS2_EEEvxDpOT_(ptr noundef nonnull align 8 dereferenceable(24) %3, i64 noundef %.pre, ptr noundef nonnull align 8 dereferenceable(8) %5)
  call void @llvm.lifetime.end.p0(i64 8, ptr nonnull %5)
  br label %16

16:                                               ; preds = %4, %_ZN7QStringaSEPKc.exit
  ret void
}